target datalayout = "e-m:e-p270:32:32-p271:32:32-p272:64:64-i64:64-i128:128-f80:128-n8:16:32:64-S128"
target triple = "x86_64-pc-linux-gnu"

; Function Attrs: nounwind uwtable
define internal void @sha3_update(ptr noundef %0, ptr noundef %1, i64 noundef %2) #0 {
  %4 = alloca ptr, align 8
  %5 = alloca ptr, align 8
  %6 = alloca i64, align 8
  store ptr %0, ptr %4, align 8, !tbaa !59
  store ptr %1, ptr %5, align 8, !tbaa !56
  store i64 %2, ptr %6, align 8, !tbaa !37
  br label %7

7:                                                ; preds = %10, %3
  %8 = load i64, ptr %6, align 8, !tbaa !37
  %9 = icmp sgt i64 %8, 4294967295
  br i1 %9, label %10, label %18

10:                                               ; preds = %7
  %11 = load ptr, ptr %4, align 8, !tbaa !59
  %12 = load ptr, ptr %5, align 8, !tbaa !56
  %13 = call zeroext i8 @python_hashlib_Hacl_Hash_SHA3_update(ptr noundef %11, ptr noundef %12, i32 noundef -1)
  %14 = load i64, ptr %6, align 8, !tbaa !37
  %15 = sub i64 %14, 4294967295
  store i64 %15, ptr %6, align 8, !tbaa !37
  %16 = load ptr, ptr %5, align 8, !tbaa !56
  %17 = getelementptr i8, ptr %16, i64 4294967295
  store ptr %17, ptr %5, align 8, !tbaa !56
  br label %7, !llvm.loop !60

18:                                               ; preds = %7
  %19 = load ptr, ptr %4, align 8, !tbaa !59
  %20 = load ptr, ptr %5, align 8, !tbaa !56
  %21 = load i64, ptr %6, align 8, !tbaa !37
  %22 = trunc i64 %21 to i32
  %23 = call zeroext i8 @python_hashlib_Hacl_Hash_SHA3_update(ptr noundef %19, ptr noundef %20, i32 noundef %22)
  ret void
}