; Function Attrs: nounwind uwtable
define internal fastcc void @sha3_update(ptr noundef %0, ptr noundef %1, i64 noundef %2) unnamed_addr #0 {
  %4 = icmp sgt i64 %2, 4294967295
  br i1 %4, label %.lr.ph, label %._crit_edge

.lr.ph:                                           ; preds = %3, %.lr.ph
  %.09 = phi i64 [ %6, %.lr.ph ], [ %2, %3 ]
  %.078 = phi ptr [ %7, %.lr.ph ], [ %1, %3 ]
  %5 = tail call zeroext i8 @python_hashlib_Hacl_Hash_SHA3_update(ptr noundef %0, ptr noundef %.078, i32 noundef -1) #4
  %6 = add nsw i64 %.09, -4294967295
  %7 = getelementptr i8, ptr %.078, i64 4294967295
  %8 = icmp samesign ugt i64 %.09, 8589934590
  br i1 %8, label %.lr.ph, label %._crit_edge, !llvm.loop !60

._crit_edge:                                      ; preds = %.lr.ph, %3
  %.07.lcssa = phi ptr [ %1, %3 ], [ %7, %.lr.ph ]
  %.0.lcssa = phi i64 [ %2, %3 ], [ %6, %.lr.ph ]
  %9 = trunc i64 %.0.lcssa to i32
  %10 = tail call zeroext i8 @python_hashlib_Hacl_Hash_SHA3_update(ptr noundef %0, ptr noundef %.07.lcssa, i32 noundef %9) #4
  ret void
}